; Function Attrs: nounwind sspstrong uwtable
define internal i64 @dir_path(i64 noundef %0) #0 {
  %2 = tail call ptr @rb_check_typeddata(i64 noundef %0, ptr noundef nonnull @dir_data_type) #22
  %3 = getelementptr inbounds nuw i8, ptr %2, i64 8
  %4 = load i64, ptr %3, align 8, !tbaa !64
  %5 = icmp eq i64 %4, 4
  br i1 %5, label %8, label %6

6:                                                ; preds = %1
  %7 = tail call i64 @rb_str_dup(i64 noundef %4) #22
  br label %8

8:                                                ; preds = %1, %6
  %.0 = phi i64 [ %7, %6 ], [ 4, %1 ]
  ret i64 %.0
}